target datalayout = "e-m:e-p270:32:32-p271:32:32-p272:64:64-i64:64-i128:128-f80:128-n8:16:32:64-S128"
target triple = "x86_64-pc-linux-gnu"

%struct.pointf_s = type { double, double }

@maxcnt = internal global i64 0, align 8
@tp3 = internal global ptr null, align 8
@stderr = external global ptr, align 8
@.str.4 = private unnamed_addr constant [58 x i8] c"integer overflow when trying to allocate %zu * %zu bytes\0A\00", align 1
@.str.5 = private unnamed_addr constant [49 x i8] c"out of memory when trying to allocate %zu bytes\0A\00", align 1

; Function Attrs: inlinehint nounwind uwtable
define internal ptr @gv_calloc(i64 noundef %0, i64 noundef %1) #3 {
  %3 = alloca i64, align 8
  %4 = alloca i64, align 8
  %5 = alloca ptr, align 8
  store i64 %0, ptr %3, align 8, !tbaa !3
  store i64 %1, ptr %4, align 8, !tbaa !3
  %6 = load i64, ptr %3, align 8, !tbaa !3
  %7 = icmp ugt i64 %6, 0
  br i1 %7, label %8, label %18

8:                                                ; preds = %2
  %9 = load i64, ptr %3, align 8, !tbaa !3
  %10 = udiv i64 -1, %9
  %11 = load i64, ptr %4, align 8, !tbaa !3
  %12 = icmp ult i64 %10, %11
  br i1 %12, label %13, label %18

13:                                               ; preds = %8
  %14 = load ptr, ptr @stderr, align 8, !tbaa !63
  %15 = load i64, ptr %3, align 8, !tbaa !3
  %16 = load i64, ptr %4, align 8, !tbaa !3
  %17 = call i32 (ptr, ptr, ...) @fprintf(ptr noundef %14, ptr noundef @.str.4, i64 noundef %15, i64 noundef %16) #12
  call void @graphviz_exit(i32 noundef 1) #13
  unreachable

18:                                               ; preds = %8, %2
  call void @llvm.lifetime.start.p0(i64 8, ptr %5) #12
  %19 = load i64, ptr %3, align 8, !tbaa !3
  %20 = load i64, ptr %4, align 8, !tbaa !3
  %21 = call noalias ptr @calloc(i64 noundef %19, i64 noundef %20) #14
  store ptr %21, ptr %5, align 8, !tbaa !10
  %22 = load i64, ptr %3, align 8, !tbaa !3
  %23 = icmp ugt i64 %22, 0
  br i1 %23, label %24, label %36

24:                                               ; preds = %18
  %25 = load i64, ptr %4, align 8, !tbaa !3
  %26 = icmp ugt i64 %25, 0
  br i1 %26, label %27, label %36

27:                                               ; preds = %24
  %28 = load ptr, ptr %5, align 8, !tbaa !10
  %29 = icmp eq ptr %28, null
  br i1 %29, label %30, label %36

30:                                               ; preds = %27
  %31 = load ptr, ptr @stderr, align 8, !tbaa !63
  %32 = load i64, ptr %3, align 8, !tbaa !3
  %33 = load i64, ptr %4, align 8, !tbaa !3
  %34 = mul i64 %32, %33
  %35 = call i32 (ptr, ptr, ...) @fprintf(ptr noundef %31, ptr noundef @.str.5, i64 noundef %34) #12
  call void @graphviz_exit(i32 noundef 1) #13
  unreachable

36:                                               ; preds = %27, %24, %18
  %37 = load ptr, ptr %5, align 8, !tbaa !10
  call void @llvm.lifetime.end.p0(i64 8, ptr %5) #12
  ret ptr %37
}

; Function Attrs: nounwind uwtable
define internal i32 @inPoly(ptr noundef %0, i32 noundef %1, double %2, double %3) #0 {
  %5 = alloca i32, align 4
  %6 = alloca %struct.pointf_s, align 8
  %7 = alloca ptr, align 8
  %8 = alloca i32, align 4
  %9 = alloca i32, align 4
  %10 = alloca i32, align 4
  %11 = alloca double, align 8
  %12 = alloca double, align 8
  %13 = alloca i32, align 4
  %14 = getelementptr inbounds nuw { double, double }, ptr %6, i32 0, i32 0
  store double %2, ptr %14, align 8
  %15 = getelementptr inbounds nuw { double, double }, ptr %6, i32 0, i32 1
  store double %3, ptr %15, align 8
  store ptr %0, ptr %7, align 8, !tbaa !7
  store i32 %1, ptr %8, align 4, !tbaa !53
  call void @llvm.lifetime.start.p0(i64 4, ptr %9) #12
  call void @llvm.lifetime.start.p0(i64 4, ptr %10) #12
  call void @llvm.lifetime.start.p0(i64 8, ptr %11) #12
  call void @llvm.lifetime.start.p0(i64 8, ptr %12) #12
  store double 0.000000e+00, ptr %12, align 8, !tbaa !18
  %16 = load ptr, ptr @tp3, align 8, !tbaa !7
  %17 = icmp eq ptr %16, null
  br i1 %17, label %18, label %21

18:                                               ; preds = %4
  %19 = load i64, ptr @maxcnt, align 8, !tbaa !3
  %20 = call ptr @gv_calloc(i64 noundef %19, i64 noundef 16)
  store ptr %20, ptr @tp3, align 8, !tbaa !7
  br label %21

21:                                               ; preds = %18, %4
  store i32 0, ptr %9, align 4, !tbaa !53
  br label %22

22:                                               ; preds = %55, %21
  %23 = load i32, ptr %9, align 4, !tbaa !53
  %24 = load i32, ptr %8, align 4, !tbaa !53
  %25 = icmp slt i32 %23, %24
  br i1 %25, label %26, label %58

26:                                               ; preds = %22
  %27 = load ptr, ptr %7, align 8, !tbaa !7
  %28 = load i32, ptr %9, align 4, !tbaa !53
  %29 = sext i32 %28 to i64
  %30 = getelementptr inbounds %struct.pointf_s, ptr %27, i64 %29
  %31 = getelementptr inbounds nuw %struct.pointf_s, ptr %30, i32 0, i32 0
  %32 = load double, ptr %31, align 8, !tbaa !37
  %33 = getelementptr inbounds nuw %struct.pointf_s, ptr %6, i32 0, i32 0
  %34 = load double, ptr %33, align 8, !tbaa !37
  %35 = fsub double %32, %34
  %36 = load ptr, ptr @tp3, align 8, !tbaa !7
  %37 = load i32, ptr %9, align 4, !tbaa !53
  %38 = sext i32 %37 to i64
  %39 = getelementptr inbounds %struct.pointf_s, ptr %36, i64 %38
  %40 = getelementptr inbounds nuw %struct.pointf_s, ptr %39, i32 0, i32 0
  store double %35, ptr %40, align 8, !tbaa !37
  %41 = load ptr, ptr %7, align 8, !tbaa !7
  %42 = load i32, ptr %9, align 4, !tbaa !53
  %43 = sext i32 %42 to i64
  %44 = getelementptr inbounds %struct.pointf_s, ptr %41, i64 %43
  %45 = getelementptr inbounds nuw %struct.pointf_s, ptr %44, i32 0, i32 1
  %46 = load double, ptr %45, align 8, !tbaa !39
  %47 = getelementptr inbounds nuw %struct.pointf_s, ptr %6, i32 0, i32 1
  %48 = load double, ptr %47, align 8, !tbaa !39
  %49 = fsub double %46, %48
  %50 = load ptr, ptr @tp3, align 8, !tbaa !7
  %51 = load i32, ptr %9, align 4, !tbaa !53
  %52 = sext i32 %51 to i64
  %53 = getelementptr inbounds %struct.pointf_s, ptr %50, i64 %52
  %54 = getelementptr inbounds nuw %struct.pointf_s, ptr %53, i32 0, i32 1
  store double %49, ptr %54, align 8, !tbaa !39
  br label %55

55:                                               ; preds = %26
  %56 = load i32, ptr %9, align 4, !tbaa !53
  %57 = add nsw i32 %56, 1
  store i32 %57, ptr %9, align 4, !tbaa !53
  br label %22, !llvm.loop !76

58:                                               ; preds = %22
  store i32 0, ptr %9, align 4, !tbaa !53
  br label %59

59:                                               ; preds = %207, %58
  %60 = load i32, ptr %9, align 4, !tbaa !53
  %61 = load i32, ptr %8, align 4, !tbaa !53
  %62 = icmp slt i32 %60, %61
  br i1 %62, label %63, label %210

63:                                               ; preds = %59
  %64 = load i32, ptr %9, align 4, !tbaa !53
  %65 = load i32, ptr %8, align 4, !tbaa !53
  %66 = add nsw i32 %64, %65
  %67 = sub nsw i32 %66, 1
  %68 = load i32, ptr %8, align 4, !tbaa !53
  %69 = srem i32 %67, %68
  store i32 %69, ptr %10, align 4, !tbaa !53
  %70 = load ptr, ptr @tp3, align 8, !tbaa !7
  %71 = load i32, ptr %9, align 4, !tbaa !53
  %72 = sext i32 %71 to i64
  %73 = getelementptr inbounds %struct.pointf_s, ptr %70, i64 %72
  %74 = getelementptr inbounds nuw %struct.pointf_s, ptr %73, i32 0, i32 1
  %75 = load double, ptr %74, align 8, !tbaa !39
  %76 = fcmp oeq double %75, 0.000000e+00
  br i1 %76, label %77, label %102

77:                                               ; preds = %63
  %78 = load ptr, ptr @tp3, align 8, !tbaa !7
  %79 = load i32, ptr %10, align 4, !tbaa !53
  %80 = sext i32 %79 to i64
  %81 = getelementptr inbounds %struct.pointf_s, ptr %78, i64 %80
  %82 = getelementptr inbounds nuw %struct.pointf_s, ptr %81, i32 0, i32 1
  %83 = load double, ptr %82, align 8, !tbaa !39
  %84 = fcmp oeq double %83, 0.000000e+00
  br i1 %84, label %85, label %102

85:                                               ; preds = %77
  %86 = load ptr, ptr @tp3, align 8, !tbaa !7
  %87 = load i32, ptr %9, align 4, !tbaa !53
  %88 = sext i32 %87 to i64
  %89 = getelementptr inbounds %struct.pointf_s, ptr %86, i64 %88
  %90 = getelementptr inbounds nuw %struct.pointf_s, ptr %89, i32 0, i32 0
  %91 = load double, ptr %90, align 8, !tbaa !37
  %92 = load ptr, ptr @tp3, align 8, !tbaa !7
  %93 = load i32, ptr %10, align 4, !tbaa !53
  %94 = sext i32 %93 to i64
  %95 = getelementptr inbounds %struct.pointf_s, ptr %92, i64 %94
  %96 = getelementptr inbounds nuw %struct.pointf_s, ptr %95, i32 0, i32 0
  %97 = load double, ptr %96, align 8, !tbaa !37
  %98 = fmul double %91, %97
  %99 = fcmp olt double %98, 0.000000e+00
  br i1 %99, label %100, label %101

100:                                              ; preds = %85
  store i32 1, ptr %5, align 4
  store i32 1, ptr %13, align 4
  br label %217

101:                                              ; preds = %85
  br label %207

102:                                              ; preds = %77, %63
  %103 = load ptr, ptr @tp3, align 8, !tbaa !7
  %104 = load i32, ptr %9, align 4, !tbaa !53
  %105 = sext i32 %104 to i64
  %106 = getelementptr inbounds %struct.pointf_s, ptr %103, i64 %105
  %107 = getelementptr inbounds nuw %struct.pointf_s, ptr %106, i32 0, i32 1
  %108 = load double, ptr %107, align 8, !tbaa !39
  %109 = fcmp oge double %108, 0.000000e+00
  br i1 %109, label %110, label %118

110:                                              ; preds = %102
  %111 = load ptr, ptr @tp3, align 8, !tbaa !7
  %112 = load i32, ptr %10, align 4, !tbaa !53
  %113 = sext i32 %112 to i64
  %114 = getelementptr inbounds %struct.pointf_s, ptr %111, i64 %113
  %115 = getelementptr inbounds nuw %struct.pointf_s, ptr %114, i32 0, i32 1
  %116 = load double, ptr %115, align 8, !tbaa !39
  %117 = fcmp ole double %116, 0.000000e+00
  br i1 %117, label %134, label %118

118:                                              ; preds = %110, %102
  %119 = load ptr, ptr @tp3, align 8, !tbaa !7
  %120 = load i32, ptr %10, align 4, !tbaa !53
  %121 = sext i32 %120 to i64
  %122 = getelementptr inbounds %struct.pointf_s, ptr %119, i64 %121
  %123 = getelementptr inbounds nuw %struct.pointf_s, ptr %122, i32 0, i32 1
  %124 = load double, ptr %123, align 8, !tbaa !39
  %125 = fcmp oge double %124, 0.000000e+00
  br i1 %125, label %126, label %206

126:                                              ; preds = %118
  %127 = load ptr, ptr @tp3, align 8, !tbaa !7
  %128 = load i32, ptr %9, align 4, !tbaa !53
  %129 = sext i32 %128 to i64
  %130 = getelementptr inbounds %struct.pointf_s, ptr %127, i64 %129
  %131 = getelementptr inbounds nuw %struct.pointf_s, ptr %130, i32 0, i32 1
  %132 = load double, ptr %131, align 8, !tbaa !39
  %133 = fcmp ole double %132, 0.000000e+00
  br i1 %133, label %134, label %206

134:                                              ; preds = %126, %110
  %135 = load ptr, ptr @tp3, align 8, !tbaa !7
  %136 = load i32, ptr %9, align 4, !tbaa !53
  %137 = sext i32 %136 to i64
  %138 = getelementptr inbounds %struct.pointf_s, ptr %135, i64 %137
  %139 = getelementptr inbounds nuw %struct.pointf_s, ptr %138, i32 0, i32 0
  %140 = load double, ptr %139, align 8, !tbaa !37
  %141 = load ptr, ptr @tp3, align 8, !tbaa !7
  %142 = load i32, ptr %10, align 4, !tbaa !53
  %143 = sext i32 %142 to i64
  %144 = getelementptr inbounds %struct.pointf_s, ptr %141, i64 %143
  %145 = getelementptr inbounds nuw %struct.pointf_s, ptr %144, i32 0, i32 1
  %146 = load double, ptr %145, align 8, !tbaa !39
  %147 = load ptr, ptr @tp3, align 8, !tbaa !7
  %148 = load i32, ptr %10, align 4, !tbaa !53
  %149 = sext i32 %148 to i64
  %150 = getelementptr inbounds %struct.pointf_s, ptr %147, i64 %149
  %151 = getelementptr inbounds nuw %struct.pointf_s, ptr %150, i32 0, i32 0
  %152 = load double, ptr %151, align 8, !tbaa !37
  %153 = load ptr, ptr @tp3, align 8, !tbaa !7
  %154 = load i32, ptr %9, align 4, !tbaa !53
  %155 = sext i32 %154 to i64
  %156 = getelementptr inbounds %struct.pointf_s, ptr %153, i64 %155
  %157 = getelementptr inbounds nuw %struct.pointf_s, ptr %156, i32 0, i32 1
  %158 = load double, ptr %157, align 8, !tbaa !39
  %159 = fmul double %152, %158
  %160 = fneg double %159
  %161 = call double @llvm.fmuladd.f64(double %140, double %146, double %160)
  %162 = load ptr, ptr @tp3, align 8, !tbaa !7
  %163 = load i32, ptr %10, align 4, !tbaa !53
  %164 = sext i32 %163 to i64
  %165 = getelementptr inbounds %struct.pointf_s, ptr %162, i64 %164
  %166 = getelementptr inbounds nuw %struct.pointf_s, ptr %165, i32 0, i32 1
  %167 = load double, ptr %166, align 8, !tbaa !39
  %168 = load ptr, ptr @tp3, align 8, !tbaa !7
  %169 = load i32, ptr %9, align 4, !tbaa !53
  %170 = sext i32 %169 to i64
  %171 = getelementptr inbounds %struct.pointf_s, ptr %168, i64 %170
  %172 = getelementptr inbounds nuw %struct.pointf_s, ptr %171, i32 0, i32 1
  %173 = load double, ptr %172, align 8, !tbaa !39
  %174 = fsub double %167, %173
  %175 = fdiv double %161, %174
  store double %175, ptr %11, align 8, !tbaa !18
  %176 = load double, ptr %11, align 8, !tbaa !18
  %177 = fcmp oeq double %176, 0.000000e+00
  br i1 %177, label %178, label %179

178:                                              ; preds = %134
  store i32 1, ptr %5, align 4
  store i32 1, ptr %13, align 4
  br label %217

179:                                              ; preds = %134
  %180 = load double, ptr %11, align 8, !tbaa !18
  %181 = fcmp ogt double %180, 0.000000e+00
  br i1 %181, label %182, label %205

182:                                              ; preds = %179
  %183 = load ptr, ptr @tp3, align 8, !tbaa !7
  %184 = load i32, ptr %9, align 4, !tbaa !53
  %185 = sext i32 %184 to i64
  %186 = getelementptr inbounds %struct.pointf_s, ptr %183, i64 %185
  %187 = getelementptr inbounds nuw %struct.pointf_s, ptr %186, i32 0, i32 1
  %188 = load double, ptr %187, align 8, !tbaa !39
  %189 = fcmp oeq double %188, 0.000000e+00
  br i1 %189, label %198, label %190

190:                                              ; preds = %182
  %191 = load ptr, ptr @tp3, align 8, !tbaa !7
  %192 = load i32, ptr %10, align 4, !tbaa !53
  %193 = sext i32 %192 to i64
  %194 = getelementptr inbounds %struct.pointf_s, ptr %191, i64 %193
  %195 = getelementptr inbounds nuw %struct.pointf_s, ptr %194, i32 0, i32 1
  %196 = load double, ptr %195, align 8, !tbaa !39
  %197 = fcmp oeq double %196, 0.000000e+00
  br i1 %197, label %198, label %201

198:                                              ; preds = %190, %182
  %199 = load double, ptr %12, align 8, !tbaa !18
  %200 = fadd double %199, 5.000000e-01
  store double %200, ptr %12, align 8, !tbaa !18
  br label %204

201:                                              ; preds = %190
  %202 = load double, ptr %12, align 8, !tbaa !18
  %203 = fadd double %202, 1.000000e+00
  store double %203, ptr %12, align 8, !tbaa !18
  br label %204

204:                                              ; preds = %201, %198
  br label %205

205:                                              ; preds = %204, %179
  br label %206

206:                                              ; preds = %205, %126, %118
  br label %207

207:                                              ; preds = %206, %101
  %208 = load i32, ptr %9, align 4, !tbaa !53
  %209 = add nsw i32 %208, 1
  store i32 %209, ptr %9, align 4, !tbaa !53
  br label %59, !llvm.loop !77

210:                                              ; preds = %59
  %211 = load double, ptr %12, align 8, !tbaa !18
  %212 = fptosi double %211 to i32
  %213 = srem i32 %212, 2
  %214 = icmp eq i32 %213, 1
  br i1 %214, label %215, label %216

215:                                              ; preds = %210
  store i32 1, ptr %5, align 4
  store i32 1, ptr %13, align 4
  br label %217

216:                                              ; preds = %210
  store i32 0, ptr %5, align 4
  store i32 1, ptr %13, align 4
  br label %217

217:                                              ; preds = %216, %215, %178, %100
  call void @llvm.lifetime.end.p0(i64 8, ptr %12) #12
  call void @llvm.lifetime.end.p0(i64 8, ptr %11) #12
  call void @llvm.lifetime.end.p0(i64 4, ptr %10) #12
  call void @llvm.lifetime.end.p0(i64 4, ptr %9) #12
  %218 = load i32, ptr %5, align 4
  ret i32 %218
}