; Function Attrs: nofree nounwind uwtable
define internal fastcc range(i32 0, 2) i32 @inPoly(ptr noundef readonly captures(none) %0, i32 noundef %1, double %2, double %3) unnamed_addr #7 {
  %5 = load ptr, ptr @tp3, align 8, !tbaa !7
  %6 = icmp eq ptr %5, null
  br i1 %6, label %7, label %20

7:                                                ; preds = %4
  %8 = load i64, ptr @maxcnt, align 8, !tbaa !3
  %mul.ov.i = icmp ugt i64 %8, 1152921504606846975
  br i1 %mul.ov.i, label %9, label %12

9:                                                ; preds = %7
  %10 = load ptr, ptr @stderr, align 8, !tbaa !36
  %11 = tail call i32 (ptr, ptr, ...) @fprintf(ptr noundef %10, ptr noundef nonnull @.str.4, i64 noundef %8, i64 noundef 16) #16
  tail call fastcc void @graphviz_exit() #17
  unreachable

12:                                               ; preds = %7
  %13 = icmp ne i64 %8, 0
  %14 = tail call noalias ptr @calloc(i64 noundef %8, i64 noundef 16) #15
  %15 = icmp eq ptr %14, null
  %or.cond3.i = and i1 %13, %15
  br i1 %or.cond3.i, label %16, label %gv_calloc.exit

16:                                               ; preds = %12
  %17 = load ptr, ptr @stderr, align 8, !tbaa !36
  %18 = shl nuw i64 %8, 4
  %19 = tail call i32 (ptr, ptr, ...) @fprintf(ptr noundef %17, ptr noundef nonnull @.str.5, i64 noundef %18) #16
  tail call fastcc void @graphviz_exit() #17
  unreachable

gv_calloc.exit:                                   ; preds = %12
  store ptr %14, ptr @tp3, align 8, !tbaa !7
  br label %20

20:                                               ; preds = %gv_calloc.exit, %4
  %21 = phi ptr [ %14, %gv_calloc.exit ], [ %5, %4 ]
  %22 = icmp sgt i32 %1, 0
  br i1 %22, label %.lr.ph, label %.loopexit

.lr.ph:                                           ; preds = %20
  %wide.trip.count = zext nneg i32 %1 to i64
  br label %24

.lr.ph46:                                         ; preds = %24
  %23 = add nsw i32 %1, -1
  %wide.trip.count51 = zext nneg i32 %1 to i64
  br label %33

24:                                               ; preds = %.lr.ph, %24
  %indvars.iv = phi i64 [ 0, %.lr.ph ], [ %indvars.iv.next, %24 ]
  %25 = getelementptr inbounds nuw %struct.pointf_s, ptr %0, i64 %indvars.iv
  %26 = load double, ptr %25, align 8, !tbaa !38
  %27 = fsub double %26, %2
  %28 = getelementptr inbounds nuw %struct.pointf_s, ptr %21, i64 %indvars.iv
  store double %27, ptr %28, align 8, !tbaa !38
  %29 = getelementptr inbounds nuw i8, ptr %25, i64 8
  %30 = load double, ptr %29, align 8, !tbaa !39
  %31 = fsub double %30, %3
  %32 = getelementptr inbounds nuw %struct.pointf_s, ptr %21, i64 %indvars.iv, i32 1
  store double %31, ptr %32, align 8, !tbaa !39
  %indvars.iv.next = add nuw nsw i64 %indvars.iv, 1
  %exitcond.not = icmp eq i64 %indvars.iv.next, %wide.trip.count
  br i1 %exitcond.not, label %.lr.ph46, label %24, !llvm.loop !64

33:                                               ; preds = %.lr.ph46, %75
  %indvars.iv48 = phi i64 [ 0, %.lr.ph46 ], [ %indvars.iv.next49, %75 ]
  %.045 = phi double [ 0.000000e+00, %.lr.ph46 ], [ %.1, %75 ]
  %34 = trunc nuw nsw i64 %indvars.iv48 to i32
  %35 = add i32 %23, %34
  %36 = srem i32 %35, %1
  %37 = getelementptr inbounds nuw %struct.pointf_s, ptr %21, i64 %indvars.iv48
  %38 = getelementptr inbounds nuw i8, ptr %37, i64 8
  %39 = load double, ptr %38, align 8, !tbaa !39
  %40 = fcmp oeq double %39, 0.000000e+00
  br i1 %40, label %41, label %52

41:                                               ; preds = %33
  %42 = sext i32 %36 to i64
  %43 = getelementptr inbounds %struct.pointf_s, ptr %21, i64 %42
  %44 = getelementptr inbounds nuw i8, ptr %43, i64 8
  %45 = load double, ptr %44, align 8, !tbaa !39
  %46 = fcmp oeq double %45, 0.000000e+00
  br i1 %46, label %47, label %52

47:                                               ; preds = %41
  %48 = load double, ptr %37, align 8, !tbaa !38
  %49 = load double, ptr %43, align 8, !tbaa !38
  %50 = fmul double %48, %49
  %51 = fcmp olt double %50, 0.000000e+00
  br i1 %51, label %.loopexit, label %75

52:                                               ; preds = %41, %33
  %53 = fcmp ult double %39, 0.000000e+00
  %.phi.trans.insert = sext i32 %36 to i64
  %.phi.trans.insert54 = getelementptr inbounds %struct.pointf_s, ptr %21, i64 %.phi.trans.insert, i32 1
  %.pre = load double, ptr %.phi.trans.insert54, align 8, !tbaa !39
  %54 = fcmp ugt double %.pre, 0.000000e+00
  %or.cond56 = select i1 %53, i1 true, i1 %54
  br i1 %or.cond56, label %._crit_edge53, label %57

._crit_edge53:                                    ; preds = %52
  %55 = fcmp ult double %.pre, 0.000000e+00
  %56 = fcmp ugt double %39, 0.000000e+00
  %or.cond41 = or i1 %56, %55
  br i1 %or.cond41, label %75, label %57

57:                                               ; preds = %52, %._crit_edge53
  %58 = load double, ptr %37, align 8, !tbaa !38
  %59 = getelementptr inbounds %struct.pointf_s, ptr %21, i64 %.phi.trans.insert
  %60 = load double, ptr %59, align 8, !tbaa !38
  %61 = fneg double %39
  %62 = fmul double %60, %61
  %63 = tail call double @llvm.fmuladd.f64(double %58, double %.pre, double %62)
  %64 = fsub double %.pre, %39
  %65 = fdiv double %63, %64
  %66 = fcmp oeq double %65, 0.000000e+00
  br i1 %66, label %.loopexit, label %67

67:                                               ; preds = %57
  %68 = fcmp ogt double %65, 0.000000e+00
  br i1 %68, label %69, label %75

69:                                               ; preds = %67
  %70 = fcmp oeq double %.pre, 0.000000e+00
  %or.cond = or i1 %40, %70
  br i1 %or.cond, label %71, label %73

71:                                               ; preds = %69
  %72 = fadd double %.045, 5.000000e-01
  br label %75

73:                                               ; preds = %69
  %74 = fadd double %.045, 1.000000e+00
  br label %75

75:                                               ; preds = %._crit_edge53, %71, %73, %67, %47
  %.1 = phi double [ %.045, %47 ], [ %72, %71 ], [ %74, %73 ], [ %.045, %67 ], [ %.045, %._crit_edge53 ]
  %indvars.iv.next49 = add nuw nsw i64 %indvars.iv48, 1
  %exitcond52.not = icmp eq i64 %indvars.iv.next49, %wide.trip.count51
  br i1 %exitcond52.not, label %._crit_edge.loopexit, label %33, !llvm.loop !65

._crit_edge.loopexit:                             ; preds = %75
  %76 = fptosi double %.1 to i32
  %77 = and i32 %76, -2147483647
  %78 = icmp eq i32 %77, 1
  %79 = zext i1 %78 to i32
  br label %.loopexit

.loopexit:                                        ; preds = %57, %47, %20, %._crit_edge.loopexit
  %.036 = phi i32 [ %79, %._crit_edge.loopexit ], [ 0, %20 ], [ 1, %47 ], [ 1, %57 ]
  ret i32 %.036
}